target datalayout = "e-m:e-p270:32:32-p271:32:32-p272:64:64-i64:64-i128:128-f80:128-n8:16:32:64-S128"
target triple = "x86_64-pc-linux-gnu"

%struct.H5FA_hdr_t = type { %struct.H5C_cache_entry_t, %struct.H5FA_create_t, i64, %struct.H5FA_stat_t, i64, i64, i64, ptr, i64, i8, i64, i64, ptr, i8, ptr, ptr }
%struct.H5C_cache_entry_t = type { ptr, i64, i64, ptr, i8, ptr, i8, i8, i8, i8, i32, i8, i8, i8, i8, i8, i32, ptr, i32, i32, i32, i32, i32, i8, i8, ptr, ptr, ptr, ptr, ptr, ptr, i8, i32, i8, i64, ptr, i64, i64, i32, i8, i32, i32, i8, ptr, ptr, ptr }
%struct.H5FA_create_t = type { ptr, i8, i8, i64 }
%struct.H5FA_stat_t = type { i64, i64, i64 }
%struct.H5FA_t = type { ptr, ptr }

@H5FA_init_g = global i8 0, align 1
@H5_libterm_g = external global i8, align 1

; Function Attrs: nounwind uwtable
define i32 @H5FA_get_nelmts(ptr noundef %0, ptr noundef %1) #0 {
  %3 = alloca ptr, align 8
  %4 = alloca ptr, align 8
  store ptr %0, ptr %3, align 8, !tbaa !11
  store ptr %1, ptr %4, align 8, !tbaa !41
  %5 = load i8, ptr @H5FA_init_g, align 1, !tbaa !13, !range !15, !noundef !16
  %6 = trunc i8 %5 to i1
  br i1 %6, label %11, label %7

7:                                                ; preds = %2
  %8 = load i8, ptr @H5_libterm_g, align 1, !tbaa !13, !range !15, !noundef !16
  %9 = trunc i8 %8 to i1
  %10 = xor i1 %9, true
  br label %11

11:                                               ; preds = %7, %2
  %12 = phi i1 [ false, %2 ], [ %10, %7 ]
  %13 = xor i1 %12, true
  %14 = xor i1 %13, true
  %15 = zext i1 %14 to i32
  %16 = sext i32 %15 to i64
  %17 = call i64 @llvm.expect.i64(i64 %16, i64 0)
  %18 = icmp ne i64 %17, 0
  br i1 %18, label %19, label %20

19:                                               ; preds = %11
  store i8 1, ptr @H5FA_init_g, align 1, !tbaa !13
  br label %20

20:                                               ; preds = %19, %11
  %21 = load i8, ptr @H5FA_init_g, align 1, !tbaa !13, !range !15, !noundef !16
  %22 = trunc i8 %21 to i1
  br i1 %22, label %27, label %23

23:                                               ; preds = %20
  %24 = load i8, ptr @H5_libterm_g, align 1, !tbaa !13, !range !15, !noundef !16
  %25 = trunc i8 %24 to i1
  %26 = xor i1 %25, true
  br label %27

27:                                               ; preds = %23, %20
  %28 = phi i1 [ true, %20 ], [ %26, %23 ]
  %29 = xor i1 %28, true
  %30 = xor i1 %29, true
  %31 = zext i1 %30 to i32
  %32 = sext i32 %31 to i64
  %33 = call i64 @llvm.expect.i64(i64 %32, i64 1)
  %34 = icmp ne i64 %33, 0
  br i1 %34, label %35, label %43

35:                                               ; preds = %27
  %36 = load ptr, ptr %3, align 8, !tbaa !11
  %37 = getelementptr inbounds nuw %struct.H5FA_t, ptr %36, i32 0, i32 0
  %38 = load ptr, ptr %37, align 8, !tbaa !35
  %39 = getelementptr inbounds nuw %struct.H5FA_hdr_t, ptr %38, i32 0, i32 3
  %40 = getelementptr inbounds nuw %struct.H5FA_stat_t, ptr %39, i32 0, i32 2
  %41 = load i64, ptr %40, align 8, !tbaa !42
  %42 = load ptr, ptr %4, align 8, !tbaa !41
  store i64 %41, ptr %42, align 8, !tbaa !17
  br label %43

43:                                               ; preds = %35, %27
  ret i32 0
}